target datalayout = "e-m:e-p270:32:32-p271:32:32-p272:64:64-i64:64-i128:128-f80:128-n8:16:32:64-S128"
target triple = "x86_64-pc-linux-gnu"

%struct.CVodeMemRec = type { ptr, double, ptr, ptr, i32, i32, double, double, ptr, i32, i32, ptr, ptr, i32, i32, ptr, i32, i32, double, double, ptr, i32, i32, i32, i32, ptr, ptr, ptr, i32, i32, ptr, ptr, ptr, i32, double, i32, i32, double, ptr, ptr, ptr, i32, ptr, ptr, i32, i32, i32, double, ptr, ptr, ptr, [13 x ptr], ptr, ptr, ptr, ptr, ptr, ptr, ptr, ptr, ptr, [13 x ptr], ptr, ptr, ptr, ptr, [13 x ptr], ptr, ptr, ptr, ptr, ptr, i32, [13 x ptr], ptr, ptr, ptr, ptr, ptr, i32, i32, double, i32, i32, i32, i32, i32, double, double, double, double, double, double, double, double, [14 x double], [6 x double], [13 x double], double, double, double, double, double, double, double, double, i32, double, double, i32, double, double, ptr, i32, i64, i32, i32, i32, double, double, double, double, double, double, double, double, double, double, double, double, i64, i32, i64, i64, i64, i64, i64, i64, i64, i64, i64, ptr, i64, i64, ptr, i64, i64, ptr, i64, i64, i64, i64, i64, i64, i32, double, double, double, i64, i64, i64, i64, i64, i64, ptr, i32, ptr, i32, ptr, i32, ptr, i32, i32, i64, i32, ptr, i32, ptr, ptr, ptr, ptr, ptr, ptr, i32, i32, ptr, ptr, ptr, ptr, ptr, i64, double, i32, i32, i64, double, double, double, i32, i32, double, i32, i32, i32, i32, i32, i32, i32, i32, i32, i32, i32, i32, i32, i32, i32, i32, ptr, i64, i32, [6 x [4 x double]], i32, i64, ptr, i32, ptr, ptr, double, double, double, ptr, ptr, ptr, double, double, i32, i32, i64, ptr, i32, ptr, i32, i32, [13 x double], ptr, ptr, ptr, i32, ptr, i32 }

@.str = private unnamed_addr constant [115 x i8] c"generated/home/dtcxzyw/WorkSpace/Projects/compilers/llvm-opt-benchmark/bench/sundials/sundials/src/cvodes/cvodes.c\00", align 1
@.str.4 = private unnamed_addr constant [26 x i8] c"cvode_mem = NULL illegal.\00", align 1
@__func__.CVodeGetDky = private unnamed_addr constant [12 x i8] c"CVodeGetDky\00", align 1
@.str.60 = private unnamed_addr constant [20 x i8] c"dky = NULL illegal.\00", align 1
@.str.61 = private unnamed_addr constant [21 x i8] c"Illegal value for k.\00", align 1
@.str.62 = private unnamed_addr constant [75 x i8] c"Illegal value for t.t = %lg is not between tcur - hu = %lg and tcur = %lg.\00", align 1

; Function Attrs: nounwind uwtable
define i32 @CVodeGetDky(ptr noundef %0, double noundef %1, i32 noundef %2, ptr noundef %3) #0 {
  %5 = alloca i32, align 4
  %6 = alloca ptr, align 8
  %7 = alloca double, align 8
  %8 = alloca i32, align 4
  %9 = alloca ptr, align 8
  %10 = alloca double, align 8
  %11 = alloca double, align 8
  %12 = alloca double, align 8
  %13 = alloca double, align 8
  %14 = alloca double, align 8
  %15 = alloca i32, align 4
  %16 = alloca i32, align 4
  %17 = alloca i32, align 4
  %18 = alloca i32, align 4
  %19 = alloca ptr, align 8
  %20 = alloca i32, align 4
  store ptr %0, ptr %6, align 8, !tbaa !153
  store double %1, ptr %7, align 8, !tbaa !150
  store i32 %2, ptr %8, align 4, !tbaa !3
  store ptr %3, ptr %9, align 8, !tbaa !151
  call void @llvm.lifetime.start.p0(i64 8, ptr %10) #10
  call void @llvm.lifetime.start.p0(i64 8, ptr %11) #10
  call void @llvm.lifetime.start.p0(i64 8, ptr %12) #10
  call void @llvm.lifetime.start.p0(i64 8, ptr %13) #10
  call void @llvm.lifetime.start.p0(i64 8, ptr %14) #10
  call void @llvm.lifetime.start.p0(i64 4, ptr %15) #10
  call void @llvm.lifetime.start.p0(i64 4, ptr %16) #10
  call void @llvm.lifetime.start.p0(i64 4, ptr %17) #10
  call void @llvm.lifetime.start.p0(i64 4, ptr %18) #10
  call void @llvm.lifetime.start.p0(i64 8, ptr %19) #10
  %21 = load ptr, ptr %6, align 8, !tbaa !153
  %22 = icmp eq ptr %21, null
  br i1 %22, label %23, label %24

23:                                               ; preds = %4
  call void (ptr, i32, i32, ptr, ptr, ptr, ...) @cvProcessError(ptr noundef null, i32 noundef -21, i32 noundef 3753, ptr noundef @__func__.CVodeGetDky, ptr noundef @.str, ptr noundef @.str.4)
  store i32 -21, ptr %5, align 4
  store i32 1, ptr %20, align 4
  br label %210

24:                                               ; preds = %4
  %25 = load ptr, ptr %6, align 8, !tbaa !153
  store ptr %25, ptr %19, align 8, !tbaa !10
  %26 = load ptr, ptr %9, align 8, !tbaa !151
  %27 = icmp eq ptr %26, null
  br i1 %27, label %28, label %30

28:                                               ; preds = %24
  %29 = load ptr, ptr %19, align 8, !tbaa !10
  call void (ptr, i32, i32, ptr, ptr, ptr, ...) @cvProcessError(ptr noundef %29, i32 noundef -26, i32 noundef 3762, ptr noundef @__func__.CVodeGetDky, ptr noundef @.str, ptr noundef @.str.60)
  store i32 -26, ptr %5, align 4
  store i32 1, ptr %20, align 4
  br label %210

30:                                               ; preds = %24
  %31 = load i32, ptr %8, align 4, !tbaa !3
  %32 = icmp slt i32 %31, 0
  br i1 %32, label %39, label %33

33:                                               ; preds = %30
  %34 = load i32, ptr %8, align 4, !tbaa !3
  %35 = load ptr, ptr %19, align 8, !tbaa !10
  %36 = getelementptr inbounds nuw %struct.CVodeMemRec, ptr %35, i32 0, i32 82
  %37 = load i32, ptr %36, align 8, !tbaa !169
  %38 = icmp sgt i32 %34, %37
  br i1 %38, label %39, label %41

39:                                               ; preds = %33, %30
  %40 = load ptr, ptr %19, align 8, !tbaa !10
  call void (ptr, i32, i32, ptr, ptr, ptr, ...) @cvProcessError(ptr noundef %40, i32 noundef -24, i32 noundef 3770, ptr noundef @__func__.CVodeGetDky, ptr noundef @.str, ptr noundef @.str.61)
  store i32 -24, ptr %5, align 4
  store i32 1, ptr %20, align 4
  br label %210

41:                                               ; preds = %33
  %42 = load ptr, ptr %19, align 8, !tbaa !10
  %43 = getelementptr inbounds nuw %struct.CVodeMemRec, ptr %42, i32 0, i32 1
  %44 = load double, ptr %43, align 8, !tbaa !25
  %45 = fmul double 1.000000e+02, %44
  %46 = load ptr, ptr %19, align 8, !tbaa !10
  %47 = getelementptr inbounds nuw %struct.CVodeMemRec, ptr %46, i32 0, i32 93
  %48 = load double, ptr %47, align 8, !tbaa !167
  %49 = call double @llvm.fabs.f64(double %48)
  %50 = load ptr, ptr %19, align 8, !tbaa !10
  %51 = getelementptr inbounds nuw %struct.CVodeMemRec, ptr %50, i32 0, i32 196
  %52 = load double, ptr %51, align 8, !tbaa !174
  %53 = call double @llvm.fabs.f64(double %52)
  %54 = fadd double %49, %53
  %55 = fmul double %45, %54
  store double %55, ptr %12, align 8, !tbaa !150
  %56 = load ptr, ptr %19, align 8, !tbaa !10
  %57 = getelementptr inbounds nuw %struct.CVodeMemRec, ptr %56, i32 0, i32 196
  %58 = load double, ptr %57, align 8, !tbaa !174
  %59 = fcmp olt double %58, 0.000000e+00
  br i1 %59, label %60, label %63

60:                                               ; preds = %41
  %61 = load double, ptr %12, align 8, !tbaa !150
  %62 = fneg double %61
  store double %62, ptr %12, align 8, !tbaa !150
  br label %63

63:                                               ; preds = %60, %41
  %64 = load ptr, ptr %19, align 8, !tbaa !10
  %65 = getelementptr inbounds nuw %struct.CVodeMemRec, ptr %64, i32 0, i32 93
  %66 = load double, ptr %65, align 8, !tbaa !167
  %67 = load ptr, ptr %19, align 8, !tbaa !10
  %68 = getelementptr inbounds nuw %struct.CVodeMemRec, ptr %67, i32 0, i32 196
  %69 = load double, ptr %68, align 8, !tbaa !174
  %70 = fsub double %66, %69
  %71 = load double, ptr %12, align 8, !tbaa !150
  %72 = fsub double %70, %71
  store double %72, ptr %13, align 8, !tbaa !150
  %73 = load ptr, ptr %19, align 8, !tbaa !10
  %74 = getelementptr inbounds nuw %struct.CVodeMemRec, ptr %73, i32 0, i32 93
  %75 = load double, ptr %74, align 8, !tbaa !167
  %76 = load double, ptr %12, align 8, !tbaa !150
  %77 = fadd double %75, %76
  store double %77, ptr %14, align 8, !tbaa !150
  %78 = load double, ptr %7, align 8, !tbaa !150
  %79 = load double, ptr %13, align 8, !tbaa !150
  %80 = fsub double %78, %79
  %81 = load double, ptr %7, align 8, !tbaa !150
  %82 = load double, ptr %14, align 8, !tbaa !150
  %83 = fsub double %81, %82
  %84 = fmul double %80, %83
  %85 = fcmp ogt double %84, 0.000000e+00
  br i1 %85, label %86, label %99

86:                                               ; preds = %63
  %87 = load ptr, ptr %19, align 8, !tbaa !10
  %88 = load double, ptr %7, align 8, !tbaa !150
  %89 = load ptr, ptr %19, align 8, !tbaa !10
  %90 = getelementptr inbounds nuw %struct.CVodeMemRec, ptr %89, i32 0, i32 93
  %91 = load double, ptr %90, align 8, !tbaa !167
  %92 = load ptr, ptr %19, align 8, !tbaa !10
  %93 = getelementptr inbounds nuw %struct.CVodeMemRec, ptr %92, i32 0, i32 196
  %94 = load double, ptr %93, align 8, !tbaa !174
  %95 = fsub double %91, %94
  %96 = load ptr, ptr %19, align 8, !tbaa !10
  %97 = getelementptr inbounds nuw %struct.CVodeMemRec, ptr %96, i32 0, i32 93
  %98 = load double, ptr %97, align 8, !tbaa !167
  call void (ptr, i32, i32, ptr, ptr, ptr, ...) @cvProcessError(ptr noundef %87, i32 noundef -25, i32 noundef 3783, ptr noundef @__func__.CVodeGetDky, ptr noundef @.str, ptr noundef @.str.62, double noundef %88, double noundef %95, double noundef %98)
  store i32 -25, ptr %5, align 4
  store i32 1, ptr %20, align 4
  br label %210

99:                                               ; preds = %63
  store i32 0, ptr %17, align 4, !tbaa !3
  %100 = load double, ptr %7, align 8, !tbaa !150
  %101 = load ptr, ptr %19, align 8, !tbaa !10
  %102 = getelementptr inbounds nuw %struct.CVodeMemRec, ptr %101, i32 0, i32 93
  %103 = load double, ptr %102, align 8, !tbaa !167
  %104 = fsub double %100, %103
  %105 = load ptr, ptr %19, align 8, !tbaa !10
  %106 = getelementptr inbounds nuw %struct.CVodeMemRec, ptr %105, i32 0, i32 88
  %107 = load double, ptr %106, align 8, !tbaa !265
  %108 = fdiv double %104, %107
  store double %108, ptr %10, align 8, !tbaa !150
  %109 = load ptr, ptr %19, align 8, !tbaa !10
  %110 = getelementptr inbounds nuw %struct.CVodeMemRec, ptr %109, i32 0, i32 82
  %111 = load i32, ptr %110, align 8, !tbaa !169
  store i32 %111, ptr %16, align 4, !tbaa !3
  br label %112

112:                                              ; preds = %180, %99
  %113 = load i32, ptr %16, align 4, !tbaa !3
  %114 = load i32, ptr %8, align 4, !tbaa !3
  %115 = icmp sge i32 %113, %114
  br i1 %115, label %116, label %183

116:                                              ; preds = %112
  %117 = load ptr, ptr %19, align 8, !tbaa !10
  %118 = getelementptr inbounds nuw %struct.CVodeMemRec, ptr %117, i32 0, i32 244
  %119 = load ptr, ptr %118, align 8, !tbaa !164
  %120 = load i32, ptr %17, align 4, !tbaa !3
  %121 = sext i32 %120 to i64
  %122 = getelementptr inbounds double, ptr %119, i64 %121
  store double 1.000000e+00, ptr %122, align 8, !tbaa !150
  %123 = load i32, ptr %16, align 4, !tbaa !3
  store i32 %123, ptr %15, align 4, !tbaa !3
  br label %124

124:                                              ; preds = %142, %116
  %125 = load i32, ptr %15, align 4, !tbaa !3
  %126 = load i32, ptr %16, align 4, !tbaa !3
  %127 = load i32, ptr %8, align 4, !tbaa !3
  %128 = sub nsw i32 %126, %127
  %129 = add nsw i32 %128, 1
  %130 = icmp sge i32 %125, %129
  br i1 %130, label %131, label %145

131:                                              ; preds = %124
  %132 = load i32, ptr %15, align 4, !tbaa !3
  %133 = sitofp i32 %132 to double
  %134 = load ptr, ptr %19, align 8, !tbaa !10
  %135 = getelementptr inbounds nuw %struct.CVodeMemRec, ptr %134, i32 0, i32 244
  %136 = load ptr, ptr %135, align 8, !tbaa !164
  %137 = load i32, ptr %17, align 4, !tbaa !3
  %138 = sext i32 %137 to i64
  %139 = getelementptr inbounds double, ptr %136, i64 %138
  %140 = load double, ptr %139, align 8, !tbaa !150
  %141 = fmul double %140, %133
  store double %141, ptr %139, align 8, !tbaa !150
  br label %142

142:                                              ; preds = %131
  %143 = load i32, ptr %15, align 4, !tbaa !3
  %144 = add nsw i32 %143, -1
  store i32 %144, ptr %15, align 4, !tbaa !3
  br label %124

145:                                              ; preds = %124
  store i32 0, ptr %15, align 4, !tbaa !3
  br label %146

146:                                              ; preds = %162, %145
  %147 = load i32, ptr %15, align 4, !tbaa !3
  %148 = load i32, ptr %16, align 4, !tbaa !3
  %149 = load i32, ptr %8, align 4, !tbaa !3
  %150 = sub nsw i32 %148, %149
  %151 = icmp slt i32 %147, %150
  br i1 %151, label %152, label %165

152:                                              ; preds = %146
  %153 = load double, ptr %10, align 8, !tbaa !150
  %154 = load ptr, ptr %19, align 8, !tbaa !10
  %155 = getelementptr inbounds nuw %struct.CVodeMemRec, ptr %154, i32 0, i32 244
  %156 = load ptr, ptr %155, align 8, !tbaa !164
  %157 = load i32, ptr %17, align 4, !tbaa !3
  %158 = sext i32 %157 to i64
  %159 = getelementptr inbounds double, ptr %156, i64 %158
  %160 = load double, ptr %159, align 8, !tbaa !150
  %161 = fmul double %160, %153
  store double %161, ptr %159, align 8, !tbaa !150
  br label %162

162:                                              ; preds = %152
  %163 = load i32, ptr %15, align 4, !tbaa !3
  %164 = add nsw i32 %163, 1
  store i32 %164, ptr %15, align 4, !tbaa !3
  br label %146

165:                                              ; preds = %146
  %166 = load ptr, ptr %19, align 8, !tbaa !10
  %167 = getelementptr inbounds nuw %struct.CVodeMemRec, ptr %166, i32 0, i32 51
  %168 = load i32, ptr %16, align 4, !tbaa !3
  %169 = sext i32 %168 to i64
  %170 = getelementptr inbounds [13 x ptr], ptr %167, i64 0, i64 %169
  %171 = load ptr, ptr %170, align 8, !tbaa !151
  %172 = load ptr, ptr %19, align 8, !tbaa !10
  %173 = getelementptr inbounds nuw %struct.CVodeMemRec, ptr %172, i32 0, i32 245
  %174 = load ptr, ptr %173, align 8, !tbaa !165
  %175 = load i32, ptr %17, align 4, !tbaa !3
  %176 = sext i32 %175 to i64
  %177 = getelementptr inbounds ptr, ptr %174, i64 %176
  store ptr %171, ptr %177, align 8, !tbaa !151
  %178 = load i32, ptr %17, align 4, !tbaa !3
  %179 = add nsw i32 %178, 1
  store i32 %179, ptr %17, align 4, !tbaa !3
  br label %180

180:                                              ; preds = %165
  %181 = load i32, ptr %16, align 4, !tbaa !3
  %182 = add nsw i32 %181, -1
  store i32 %182, ptr %16, align 4, !tbaa !3
  br label %112

183:                                              ; preds = %112
  %184 = load i32, ptr %17, align 4, !tbaa !3
  %185 = load ptr, ptr %19, align 8, !tbaa !10
  %186 = getelementptr inbounds nuw %struct.CVodeMemRec, ptr %185, i32 0, i32 244
  %187 = load ptr, ptr %186, align 8, !tbaa !164
  %188 = load ptr, ptr %19, align 8, !tbaa !10
  %189 = getelementptr inbounds nuw %struct.CVodeMemRec, ptr %188, i32 0, i32 245
  %190 = load ptr, ptr %189, align 8, !tbaa !165
  %191 = load ptr, ptr %9, align 8, !tbaa !151
  %192 = call i32 @N_VLinearCombination(i32 noundef %184, ptr noundef %187, ptr noundef %190, ptr noundef %191)
  store i32 %192, ptr %18, align 4, !tbaa !3
  %193 = load i32, ptr %18, align 4, !tbaa !3
  %194 = icmp ne i32 %193, 0
  br i1 %194, label %195, label %196

195:                                              ; preds = %183
  store i32 -28, ptr %5, align 4
  store i32 1, ptr %20, align 4
  br label %210

196:                                              ; preds = %183
  %197 = load i32, ptr %8, align 4, !tbaa !3
  %198 = icmp eq i32 %197, 0
  br i1 %198, label %199, label %200

199:                                              ; preds = %196
  store i32 0, ptr %5, align 4
  store i32 1, ptr %20, align 4
  br label %210

200:                                              ; preds = %196
  %201 = load ptr, ptr %19, align 8, !tbaa !10
  %202 = getelementptr inbounds nuw %struct.CVodeMemRec, ptr %201, i32 0, i32 88
  %203 = load double, ptr %202, align 8, !tbaa !265
  %204 = load i32, ptr %8, align 4, !tbaa !3
  %205 = sub nsw i32 0, %204
  %206 = call double @SUNRpowerI(double noundef %203, i32 noundef %205)
  store double %206, ptr %11, align 8, !tbaa !150
  %207 = load double, ptr %11, align 8, !tbaa !150
  %208 = load ptr, ptr %9, align 8, !tbaa !151
  %209 = load ptr, ptr %9, align 8, !tbaa !151
  call void @N_VScale(double noundef %207, ptr noundef %208, ptr noundef %209)
  store i32 0, ptr %5, align 4
  store i32 1, ptr %20, align 4
  br label %210

210:                                              ; preds = %200, %199, %195, %86, %39, %28, %23
  call void @llvm.lifetime.end.p0(i64 8, ptr %19) #10
  call void @llvm.lifetime.end.p0(i64 4, ptr %18) #10
  call void @llvm.lifetime.end.p0(i64 4, ptr %17) #10
  call void @llvm.lifetime.end.p0(i64 4, ptr %16) #10
  call void @llvm.lifetime.end.p0(i64 4, ptr %15) #10
  call void @llvm.lifetime.end.p0(i64 8, ptr %14) #10
  call void @llvm.lifetime.end.p0(i64 8, ptr %13) #10
  call void @llvm.lifetime.end.p0(i64 8, ptr %12) #10
  call void @llvm.lifetime.end.p0(i64 8, ptr %11) #10
  call void @llvm.lifetime.end.p0(i64 8, ptr %10) #10
  %211 = load i32, ptr %5, align 4
  ret i32 %211
}