; Function Attrs: nounwind uwtable
define range(i32 -28, 1) i32 @CVodeGetDky(ptr noundef captures(address_is_null) %0, double noundef %1, i32 noundef %2, ptr noundef %3) local_unnamed_addr #0 {
  %5 = icmp eq ptr %0, null
  br i1 %5, label %6, label %7

6:                                                ; preds = %4
  tail call void (ptr, i32, i32, ptr, ptr, ptr, ...) @cvProcessError(ptr noundef null, i32 noundef -21, i32 noundef 3753, ptr noundef nonnull @__func__.CVodeGetDky, ptr noundef nonnull @.str, ptr noundef nonnull @.str.4)
  br label %75

7:                                                ; preds = %4
  %8 = icmp eq ptr %3, null
  br i1 %8, label %9, label %10

9:                                                ; preds = %7
  tail call void (ptr, i32, i32, ptr, ptr, ptr, ...) @cvProcessError(ptr noundef nonnull %0, i32 noundef -26, i32 noundef 3762, ptr noundef nonnull @__func__.CVodeGetDky, ptr noundef nonnull @.str, ptr noundef nonnull @.str.60)
  br label %75

10:                                               ; preds = %7
  %11 = icmp slt i32 %2, 0
  br i1 %11, label %16, label %12

12:                                               ; preds = %10
  %13 = getelementptr inbounds nuw i8, ptr %0, i64 960
  %14 = load i32, ptr %13, align 8, !tbaa !108
  %15 = icmp sgt i32 %2, %14
  br i1 %15, label %16, label %17

16:                                               ; preds = %12, %10
  tail call void (ptr, i32, i32, ptr, ptr, ptr, ...) @cvProcessError(ptr noundef nonnull %0, i32 noundef -24, i32 noundef 3770, ptr noundef nonnull @__func__.CVodeGetDky, ptr noundef nonnull @.str, ptr noundef nonnull @.str.61)
  br label %75

17:                                               ; preds = %12
  %18 = getelementptr inbounds nuw i8, ptr %0, i64 8
  %19 = load double, ptr %18, align 8, !tbaa !21
  %20 = fmul double %19, 1.000000e+02
  %21 = getelementptr inbounds nuw i8, ptr %0, i64 1032
  %22 = load double, ptr %21, align 8, !tbaa !106
  %23 = tail call double @llvm.fabs.f64(double %22)
  %24 = getelementptr inbounds nuw i8, ptr %0, i64 2064
  %25 = load double, ptr %24, align 8, !tbaa !113
  %26 = tail call double @llvm.fabs.f64(double %25)
  %27 = fadd double %23, %26
  %28 = fmul double %20, %27
  %29 = fcmp olt double %25, 0.000000e+00
  %30 = fneg double %28
  %.067 = select i1 %29, double %30, double %28
  %31 = fsub double %22, %25
  %32 = fsub double %31, %.067
  %33 = fadd double %22, %.067
  %34 = fsub double %1, %32
  %35 = fsub double %1, %33
  %36 = fmul double %34, %35
  %37 = fcmp ogt double %36, 0.000000e+00
  br i1 %37, label %38, label %.lr.ph87

38:                                               ; preds = %17
  tail call void (ptr, i32, i32, ptr, ptr, ptr, ...) @cvProcessError(ptr noundef nonnull %0, i32 noundef -25, i32 noundef 3783, ptr noundef nonnull @__func__.CVodeGetDky, ptr noundef nonnull @.str, ptr noundef nonnull @.str.62, double noundef %1, double noundef %31, double noundef %22)
  br label %75

.lr.ph87:                                         ; preds = %17
  %39 = fsub double %1, %22
  %40 = getelementptr inbounds nuw i8, ptr %0, i64 992
  %41 = load double, ptr %40, align 8, !tbaa !233
  %42 = fdiv double %39, %41
  %43 = getelementptr inbounds nuw i8, ptr %0, i64 2640
  %44 = load ptr, ptr %43, align 8, !tbaa !103
  %45 = getelementptr inbounds nuw i8, ptr %0, i64 336
  %46 = getelementptr inbounds nuw i8, ptr %0, i64 2648
  %47 = load ptr, ptr %46, align 8, !tbaa !104
  %48 = sub nsw i32 %14, %2
  %49 = add nuw i32 %14, 1
  %50 = sub i32 %49, %2
  %wide.trip.count = zext i32 %50 to i64
  %.not75.not76.not = icmp eq i32 %2, 0
  br label %51

51:                                               ; preds = %.lr.ph87, %62
  %indvars.iv91 = phi i64 [ 0, %.lr.ph87 ], [ %indvars.iv.next92, %62 ]
  %indvars.iv = phi i32 [ %48, %.lr.ph87 ], [ %indvars.iv.next, %62 ]
  %.06984 = phi i32 [ %14, %.lr.ph87 ], [ %67, %62 ]
  %52 = getelementptr inbounds nuw double, ptr %44, i64 %indvars.iv91
  store double 1.000000e+00, ptr %52, align 8, !tbaa !69
  %53 = sub nsw i32 %.06984, %2
  br i1 %.not75.not76.not, label %.preheader, label %.lr.ph

..preheader_crit_edge:                            ; preds = %.lr.ph
  store double %57, ptr %52, align 8, !tbaa !69
  br label %.preheader

.preheader:                                       ; preds = %..preheader_crit_edge, %51
  %.promoted81 = phi double [ %57, %..preheader_crit_edge ], [ 1.000000e+00, %51 ]
  %54 = icmp sgt i32 %53, 0
  br i1 %54, label %.lr.ph80, label %62

.lr.ph:                                           ; preds = %51, %.lr.ph
  %55 = phi double [ %57, %.lr.ph ], [ 1.000000e+00, %51 ]
  %.07077 = phi i32 [ %58, %.lr.ph ], [ %.06984, %51 ]
  %56 = sitofp i32 %.07077 to double
  %57 = fmul double %55, %56
  %58 = add nsw i32 %.07077, -1
  %.not75.not = icmp sgt i32 %58, %53
  br i1 %.not75.not, label %.lr.ph, label %..preheader_crit_edge

.lr.ph80:                                         ; preds = %.preheader, %.lr.ph80
  %59 = phi double [ %60, %.lr.ph80 ], [ %.promoted81, %.preheader ]
  %.179 = phi i32 [ %61, %.lr.ph80 ], [ 0, %.preheader ]
  %60 = fmul double %42, %59
  %61 = add nuw nsw i32 %.179, 1
  %exitcond.not = icmp eq i32 %61, %indvars.iv
  br i1 %exitcond.not, label %._crit_edge, label %.lr.ph80

._crit_edge:                                      ; preds = %.lr.ph80
  store double %60, ptr %52, align 8, !tbaa !69
  br label %62

62:                                               ; preds = %._crit_edge, %.preheader
  %63 = zext nneg i32 %.06984 to i64
  %64 = getelementptr inbounds nuw [13 x ptr], ptr %45, i64 0, i64 %63
  %65 = load ptr, ptr %64, align 8, !tbaa !65
  %66 = getelementptr inbounds nuw ptr, ptr %47, i64 %indvars.iv91
  store ptr %65, ptr %66, align 8, !tbaa !65
  %indvars.iv.next92 = add nuw nsw i64 %indvars.iv91, 1
  %67 = add nsw i32 %.06984, -1
  %indvars.iv.next = add i32 %indvars.iv, -1
  %exitcond94.not = icmp eq i64 %indvars.iv.next92, %wide.trip.count
  br i1 %exitcond94.not, label %._crit_edge88, label %51

._crit_edge88:                                    ; preds = %62
  %68 = tail call i32 @N_VLinearCombination(i32 noundef %50, ptr noundef nonnull %44, ptr noundef nonnull %47, ptr noundef nonnull %3) #13
  %.not74 = icmp eq i32 %68, 0
  br i1 %.not74, label %69, label %75

69:                                               ; preds = %._crit_edge88
  %70 = icmp eq i32 %2, 0
  br i1 %70, label %75, label %71

71:                                               ; preds = %69
  %72 = load double, ptr %40, align 8, !tbaa !233
  %73 = sub nsw i32 0, %2
  %74 = tail call double @SUNRpowerI(double noundef %72, i32 noundef %73) #13
  tail call void @N_VScale(double noundef %74, ptr noundef nonnull %3, ptr noundef nonnull %3) #13
  br label %75

75:                                               ; preds = %69, %._crit_edge88, %71, %38, %16, %9, %6
  %.0 = phi i32 [ -21, %6 ], [ -26, %9 ], [ -24, %16 ], [ -25, %38 ], [ 0, %71 ], [ -28, %._crit_edge88 ], [ 0, %69 ]
  ret i32 %.0
}